target datalayout = "e-m:e-p270:32:32-p271:32:32-p272:64:64-i64:64-i128:128-f80:128-n8:16:32:64-S128"
target triple = "x86_64-unknown-linux-gnu"

%"class.icu_75::UnicodeString" = type { %"class.icu_75::Replaceable", %"union.icu_75::UnicodeString::StackBufferOrFields" }
%"class.icu_75::Replaceable" = type { %"class.icu_75::UObject" }
%"class.icu_75::UObject" = type { ptr }
%"union.icu_75::UnicodeString::StackBufferOrFields" = type { %struct.anon.0, [32 x i8] }
%struct.anon.0 = type { i16, i32, i32, ptr }

@.str.8 = private unnamed_addr constant [13 x i8] c"windowsZones\00", align 1
@.str.9 = private unnamed_addr constant [13 x i8] c"mapTimezones\00", align 1
@.str.10 = private unnamed_addr constant [4 x i8] c"001\00", align 1

; Function Attrs: mustprogress nounwind uwtable
define linkonce_odr noundef i32 @_ZNK6icu_7513UnicodeString14getShortLengthEv(ptr noundef nonnull align 8 dereferenceable(64) %this) #2 comdat align 2 {
entry:
  %this.addr = alloca ptr, align 8
  store ptr %this, ptr %this.addr, align 8
  %this1 = load ptr, ptr %this.addr, align 8
  %fUnion = getelementptr inbounds %"class.icu_75::UnicodeString", ptr %this1, i32 0, i32 1
  %fLengthAndFlags = getelementptr inbounds %struct.anon.0, ptr %fUnion, i32 0, i32 0
  %0 = load i16, ptr %fLengthAndFlags, align 8
  %conv = sext i16 %0 to i32
  %shr = ashr i32 %conv, 5
  ret i32 %shr
}

; Function Attrs: mustprogress nounwind uwtable
define linkonce_odr noundef signext i8 @_ZNK6icu_7513UnicodeString14hasShortLengthEv(ptr noundef nonnull align 8 dereferenceable(64) %this) #2 comdat align 2 {
entry:
  %this.addr = alloca ptr, align 8
  store ptr %this, ptr %this.addr, align 8
  %this1 = load ptr, ptr %this.addr, align 8
  %fUnion = getelementptr inbounds %"class.icu_75::UnicodeString", ptr %this1, i32 0, i32 1
  %fLengthAndFlags = getelementptr inbounds %struct.anon.0, ptr %fUnion, i32 0, i32 0
  %0 = load i16, ptr %fLengthAndFlags, align 8
  %conv = sext i16 %0 to i32
  %cmp = icmp sge i32 %conv, 0
  %conv2 = zext i1 %cmp to i8
  ret i8 %conv2
}

; Function Attrs: mustprogress nounwind uwtable
define linkonce_odr void @_ZN6icu_7513UnicodeString13setZeroLengthEv(ptr noundef nonnull align 8 dereferenceable(64) %this) #2 comdat align 2 {
entry:
  %this.addr = alloca ptr, align 8
  store ptr %this, ptr %this.addr, align 8
  %this1 = load ptr, ptr %this.addr, align 8
  %fUnion = getelementptr inbounds %"class.icu_75::UnicodeString", ptr %this1, i32 0, i32 1
  %fLengthAndFlags = getelementptr inbounds %struct.anon.0, ptr %fUnion, i32 0, i32 0
  %0 = load i16, ptr %fLengthAndFlags, align 8
  %conv = sext i16 %0 to i32
  %and = and i32 %conv, 31
  %conv2 = trunc i32 %and to i16
  store i16 %conv2, ptr %fLengthAndFlags, align 8
  ret void
}

; Function Attrs: mustprogress nounwind uwtable
define linkonce_odr void @_ZN6icu_7513UnicodeString10setToEmptyEv(ptr noundef nonnull align 8 dereferenceable(64) %this) #2 comdat align 2 {
entry:
  %this.addr = alloca ptr, align 8
  store ptr %this, ptr %this.addr, align 8
  %this1 = load ptr, ptr %this.addr, align 8
  %fUnion = getelementptr inbounds %"class.icu_75::UnicodeString", ptr %this1, i32 0, i32 1
  %fLengthAndFlags = getelementptr inbounds %struct.anon.0, ptr %fUnion, i32 0, i32 0
  store i16 2, ptr %fLengthAndFlags, align 8
  ret void
}

; Function Attrs: mustprogress nounwind uwtable
define linkonce_odr noundef signext i8 @_ZNK6icu_7513UnicodeString7isBogusEv(ptr noundef nonnull align 8 dereferenceable(64) %this) #2 comdat align 2 {
entry:
  %this.addr = alloca ptr, align 8
  store ptr %this, ptr %this.addr, align 8
  %this1 = load ptr, ptr %this.addr, align 8
  %fUnion = getelementptr inbounds %"class.icu_75::UnicodeString", ptr %this1, i32 0, i32 1
  %fLengthAndFlags = getelementptr inbounds %struct.anon.0, ptr %fUnion, i32 0, i32 0
  %0 = load i16, ptr %fLengthAndFlags, align 8
  %conv = sext i16 %0 to i32
  %and = and i32 %conv, 1
  %conv2 = trunc i32 %and to i8
  ret i8 %conv2
}

; Function Attrs: mustprogress nounwind uwtable
define internal noundef signext i8 @_ZL9U_SUCCESS10UErrorCode(i32 noundef %code) #2 {
entry:
  %code.addr = alloca i32, align 4
  store i32 %code, ptr %code.addr, align 4
  %0 = load i32, ptr %code.addr, align 4
  %cmp = icmp sle i32 %0, 0
  %conv = zext i1 %cmp to i8
  ret i8 %conv
}

; Function Attrs: mustprogress uwtable
define linkonce_odr noundef i32 @_ZNK6icu_7513UnicodeString6lengthEv(ptr noundef nonnull align 8 dereferenceable(64) %this) #0 comdat align 2 {
entry:
  %this.addr = alloca ptr, align 8
  store ptr %this, ptr %this.addr, align 8
  %this1 = load ptr, ptr %this.addr, align 8
  %call = call noundef signext i8 @_ZNK6icu_7513UnicodeString14hasShortLengthEv(ptr noundef nonnull align 8 dereferenceable(64) %this1)
  %tobool = icmp ne i8 %call, 0
  br i1 %tobool, label %cond.true, label %cond.false

cond.true:                                        ; preds = %entry
  %call2 = call noundef i32 @_ZNK6icu_7513UnicodeString14getShortLengthEv(ptr noundef nonnull align 8 dereferenceable(64) %this1)
  br label %cond.end

cond.false:                                       ; preds = %entry
  %fUnion = getelementptr inbounds %"class.icu_75::UnicodeString", ptr %this1, i32 0, i32 1
  %fLength = getelementptr inbounds %struct.anon.0, ptr %fUnion, i32 0, i32 1
  %0 = load i32, ptr %fLength, align 4
  br label %cond.end

cond.end:                                         ; preds = %cond.false, %cond.true
  %cond = phi i32 [ %call2, %cond.true ], [ %0, %cond.false ]
  ret i32 %cond
}

; Function Attrs: mustprogress nounwind uwtable
define internal noundef signext i8 @_ZL9U_FAILURE10UErrorCode(i32 noundef %code) #2 {
entry:
  %code.addr = alloca i32, align 4
  store i32 %code, ptr %code.addr, align 4
  %0 = load i32, ptr %code.addr, align 4
  %cmp = icmp sgt i32 %0, 0
  %conv = zext i1 %cmp to i8
  ret i8 %conv
}

; Function Attrs: mustprogress uwtable
define linkonce_odr noundef nonnull align 8 dereferenceable(64) ptr @_ZN6icu_7513UnicodeString6removeEv(ptr noundef nonnull align 8 dereferenceable(64) %this) #0 comdat align 2 {
entry:
  %this.addr = alloca ptr, align 8
  store ptr %this, ptr %this.addr, align 8
  %this1 = load ptr, ptr %this.addr, align 8
  %call = call noundef signext i8 @_ZNK6icu_7513UnicodeString7isBogusEv(ptr noundef nonnull align 8 dereferenceable(64) %this1)
  %tobool = icmp ne i8 %call, 0
  br i1 %tobool, label %if.then, label %if.else

if.then:                                          ; preds = %entry
  call void @_ZN6icu_7513UnicodeString10setToEmptyEv(ptr noundef nonnull align 8 dereferenceable(64) %this1)
  br label %if.end

if.else:                                          ; preds = %entry
  call void @_ZN6icu_7513UnicodeString13setZeroLengthEv(ptr noundef nonnull align 8 dereferenceable(64) %this1)
  br label %if.end

if.end:                                           ; preds = %if.else, %if.then
  ret ptr %this1
}

; Function Attrs: mustprogress uwtable
define noundef nonnull align 8 dereferenceable(64) ptr @_ZN6icu_758TimeZone17getIDForWindowsIDERKNS_13UnicodeStringEPKcRS1_R10UErrorCode(ptr noundef nonnull align 8 dereferenceable(64) %winid, ptr noundef %region, ptr noundef nonnull align 8 dereferenceable(64) %id, ptr noundef nonnull align 4 dereferenceable(4) %status) #0 align 2 {
entry:
  %retval = alloca ptr, align 8
  %winid.addr = alloca ptr, align 8
  %region.addr = alloca ptr, align 8
  %id.addr = alloca ptr, align 8
  %status.addr = alloca ptr, align 8
  %zones = alloca ptr, align 8
  %tmperr = alloca i32, align 4
  %winidKey = alloca [128 x i8], align 16
  %winKeyLen = alloca i32, align 4
  %tzid = alloca ptr, align 8
  %len = alloca i32, align 4
  %gotID = alloca i8, align 1
  %tzids = alloca ptr, align 8
  %end = alloca ptr, align 8
  store ptr %winid, ptr %winid.addr, align 8
  store ptr %region, ptr %region.addr, align 8
  store ptr %id, ptr %id.addr, align 8
  store ptr %status, ptr %status.addr, align 8
  %0 = load ptr, ptr %id.addr, align 8
  %call = call noundef nonnull align 8 dereferenceable(64) ptr @_ZN6icu_7513UnicodeString6removeEv(ptr noundef nonnull align 8 dereferenceable(64) %0)
  %1 = load ptr, ptr %status.addr, align 8
  %2 = load i32, ptr %1, align 4
  %call1 = call noundef signext i8 @_ZL9U_FAILURE10UErrorCode(i32 noundef %2)
  %tobool = icmp ne i8 %call1, 0
  br i1 %tobool, label %if.then, label %if.end

if.then:                                          ; preds = %entry
  %3 = load ptr, ptr %id.addr, align 8
  store ptr %3, ptr %retval, align 8
  br label %return

if.end:                                           ; preds = %entry
  %4 = load ptr, ptr %status.addr, align 8
  %call2 = call ptr @ures_openDirect_75(ptr noundef null, ptr noundef @.str.8, ptr noundef %4)
  store ptr %call2, ptr %zones, align 8
  %5 = load ptr, ptr %zones, align 8
  %6 = load ptr, ptr %zones, align 8
  %7 = load ptr, ptr %status.addr, align 8
  %call3 = call ptr @ures_getByKey_75(ptr noundef %5, ptr noundef @.str.9, ptr noundef %6, ptr noundef %7)
  %8 = load ptr, ptr %status.addr, align 8
  %9 = load i32, ptr %8, align 4
  %call4 = call noundef signext i8 @_ZL9U_FAILURE10UErrorCode(i32 noundef %9)
  %tobool5 = icmp ne i8 %call4, 0
  br i1 %tobool5, label %if.then6, label %if.end7

if.then6:                                         ; preds = %if.end
  %10 = load ptr, ptr %zones, align 8
  call void @ures_close_75(ptr noundef %10)
  %11 = load ptr, ptr %id.addr, align 8
  store ptr %11, ptr %retval, align 8
  br label %return

if.end7:                                          ; preds = %if.end
  store i32 0, ptr %tmperr, align 4
  %12 = load ptr, ptr %winid.addr, align 8
  %13 = load ptr, ptr %winid.addr, align 8
  %call8 = call noundef i32 @_ZNK6icu_7513UnicodeString6lengthEv(ptr noundef nonnull align 8 dereferenceable(64) %13)
  %arraydecay = getelementptr inbounds [128 x i8], ptr %winidKey, i64 0, i64 0
  %call9 = call noundef i32 @_ZNK6icu_7513UnicodeString7extractEiiPciNS0_10EInvariantE(ptr noundef nonnull align 8 dereferenceable(64) %12, i32 noundef 0, i32 noundef %call8, ptr noundef %arraydecay, i32 noundef 127, i32 noundef 0)
  store i32 %call9, ptr %winKeyLen, align 4
  %14 = load i32, ptr %winKeyLen, align 4
  %cmp = icmp eq i32 %14, 0
  br i1 %cmp, label %if.then11, label %lor.lhs.false

lor.lhs.false:                                    ; preds = %if.end7
  %15 = load i32, ptr %winKeyLen, align 4
  %cmp10 = icmp sge i32 %15, 128
  br i1 %cmp10, label %if.then11, label %if.end12

if.then11:                                        ; preds = %lor.lhs.false, %if.end7
  %16 = load ptr, ptr %zones, align 8
  call void @ures_close_75(ptr noundef %16)
  %17 = load ptr, ptr %id.addr, align 8
  store ptr %17, ptr %retval, align 8
  br label %return

if.end12:                                         ; preds = %lor.lhs.false
  %18 = load i32, ptr %winKeyLen, align 4
  %idxprom = sext i32 %18 to i64
  %arrayidx = getelementptr inbounds [128 x i8], ptr %winidKey, i64 0, i64 %idxprom
  store i8 0, ptr %arrayidx, align 1
  %19 = load ptr, ptr %zones, align 8
  %arraydecay13 = getelementptr inbounds [128 x i8], ptr %winidKey, i64 0, i64 0
  %20 = load ptr, ptr %zones, align 8
  %call14 = call ptr @ures_getByKey_75(ptr noundef %19, ptr noundef %arraydecay13, ptr noundef %20, ptr noundef %tmperr)
  %21 = load i32, ptr %tmperr, align 4
  %call15 = call noundef signext i8 @_ZL9U_FAILURE10UErrorCode(i32 noundef %21)
  %tobool16 = icmp ne i8 %call15, 0
  br i1 %tobool16, label %if.then17, label %if.end18

if.then17:                                        ; preds = %if.end12
  %22 = load ptr, ptr %zones, align 8
  call void @ures_close_75(ptr noundef %22)
  %23 = load ptr, ptr %id.addr, align 8
  store ptr %23, ptr %retval, align 8
  br label %return

if.end18:                                         ; preds = %if.end12
  store ptr null, ptr %tzid, align 8
  store i32 0, ptr %len, align 4
  store i8 0, ptr %gotID, align 1
  %24 = load ptr, ptr %region.addr, align 8
  %tobool19 = icmp ne ptr %24, null
  br i1 %tobool19, label %if.then20, label %if.end32

if.then20:                                        ; preds = %if.end18
  %25 = load ptr, ptr %zones, align 8
  %26 = load ptr, ptr %region.addr, align 8
  %call21 = call ptr @ures_getStringByKey_75(ptr noundef %25, ptr noundef %26, ptr noundef %len, ptr noundef %tmperr)
  store ptr %call21, ptr %tzids, align 8
  %27 = load i32, ptr %tmperr, align 4
  %call22 = call noundef signext i8 @_ZL9U_SUCCESS10UErrorCode(i32 noundef %27)
  %tobool23 = icmp ne i8 %call22, 0
  br i1 %tobool23, label %if.then24, label %if.end31

if.then24:                                        ; preds = %if.then20
  %28 = load ptr, ptr %tzids, align 8
  %call25 = call ptr @u_strchr_75(ptr noundef %28, i16 noundef zeroext 32)
  store ptr %call25, ptr %end, align 8
  %29 = load ptr, ptr %end, align 8
  %cmp26 = icmp eq ptr %29, null
  br i1 %cmp26, label %if.then27, label %if.else

if.then27:                                        ; preds = %if.then24
  %30 = load ptr, ptr %id.addr, align 8
  %31 = load ptr, ptr %tzids, align 8
  %call28 = call noundef nonnull align 8 dereferenceable(64) ptr @_ZN6icu_7513UnicodeString5setToEPKDsi(ptr noundef nonnull align 8 dereferenceable(64) %30, ptr noundef %31, i32 noundef -1)
  br label %if.end30

if.else:                                          ; preds = %if.then24
  %32 = load ptr, ptr %id.addr, align 8
  %33 = load ptr, ptr %tzids, align 8
  %34 = load ptr, ptr %end, align 8
  %35 = load ptr, ptr %tzids, align 8
  %sub.ptr.lhs.cast = ptrtoint ptr %34 to i64
  %sub.ptr.rhs.cast = ptrtoint ptr %35 to i64
  %sub.ptr.sub = sub i64 %sub.ptr.lhs.cast, %sub.ptr.rhs.cast
  %sub.ptr.div = sdiv exact i64 %sub.ptr.sub, 2
  %conv = trunc i64 %sub.ptr.div to i32
  %call29 = call noundef nonnull align 8 dereferenceable(64) ptr @_ZN6icu_7513UnicodeString5setToEPKDsi(ptr noundef nonnull align 8 dereferenceable(64) %32, ptr noundef %33, i32 noundef %conv)
  br label %if.end30

if.end30:                                         ; preds = %if.else, %if.then27
  store i8 1, ptr %gotID, align 1
  br label %if.end31

if.end31:                                         ; preds = %if.end30, %if.then20
  br label %if.end32

if.end32:                                         ; preds = %if.end31, %if.end18
  %36 = load i8, ptr %gotID, align 1
  %tobool33 = icmp ne i8 %36, 0
  br i1 %tobool33, label %if.end41, label %if.then34

if.then34:                                        ; preds = %if.end32
  %37 = load ptr, ptr %zones, align 8
  %38 = load ptr, ptr %status.addr, align 8
  %call35 = call ptr @ures_getStringByKey_75(ptr noundef %37, ptr noundef @.str.10, ptr noundef %len, ptr noundef %38)
  store ptr %call35, ptr %tzid, align 8
  %39 = load ptr, ptr %status.addr, align 8
  %40 = load i32, ptr %39, align 4
  %call36 = call noundef signext i8 @_ZL9U_SUCCESS10UErrorCode(i32 noundef %40)
  %tobool37 = icmp ne i8 %call36, 0
  br i1 %tobool37, label %if.then38, label %if.end40

if.then38:                                        ; preds = %if.then34
  %41 = load ptr, ptr %id.addr, align 8
  %42 = load ptr, ptr %tzid, align 8
  %43 = load i32, ptr %len, align 4
  %call39 = call noundef nonnull align 8 dereferenceable(64) ptr @_ZN6icu_7513UnicodeString5setToEPKDsi(ptr noundef nonnull align 8 dereferenceable(64) %41, ptr noundef %42, i32 noundef %43)
  br label %if.end40

if.end40:                                         ; preds = %if.then38, %if.then34
  br label %if.end41

if.end41:                                         ; preds = %if.end40, %if.end32
  %44 = load ptr, ptr %zones, align 8
  call void @ures_close_75(ptr noundef %44)
  %45 = load ptr, ptr %id.addr, align 8
  store ptr %45, ptr %retval, align 8
  br label %return

return:                                           ; preds = %if.end41, %if.then17, %if.then11, %if.then6, %if.then
  %46 = load ptr, ptr %retval, align 8
  ret ptr %46
}