; Function Attrs: mustprogress uwtable
define noundef nonnull align 8 dereferenceable(64) ptr @_ZN6icu_758TimeZone17getIDForWindowsIDERKNS_13UnicodeStringEPKcRS1_R10UErrorCode(ptr noundef nonnull align 8 dereferenceable(64) %winid, ptr noundef %region, ptr noundef nonnull returned align 8 dereferenceable(64) %id, ptr noundef nonnull align 4 dereferenceable(4) %status) local_unnamed_addr #0 align 2 {
entry:
  %tmperr = alloca i32, align 4
  %winidKey = alloca [128 x i8], align 16
  %len = alloca i32, align 4
  %fUnion.i.i = getelementptr inbounds i8, ptr %id, i64 8
  %0 = load i16, ptr %fUnion.i.i, align 8
  %conv2.i3.i = and i16 %0, 1
  %tobool.not.i = icmp eq i16 %conv2.i3.i, 0
  %1 = and i16 %0, 30
  %storemerge.i = select i1 %tobool.not.i, i16 %1, i16 2
  store i16 %storemerge.i, ptr %fUnion.i.i, align 8
  %2 = load i32, ptr %status, align 4
  %cmp.i = icmp slt i32 %2, 1
  br i1 %cmp.i, label %if.end, label %return

if.end:                                           ; preds = %entry
  %call2 = tail call ptr @ures_openDirect_75(ptr noundef null, ptr noundef nonnull @.str.8, ptr noundef nonnull %status)
  %call3 = tail call ptr @ures_getByKey_75(ptr noundef %call2, ptr noundef nonnull @.str.9, ptr noundef %call2, ptr noundef nonnull %status)
  %3 = load i32, ptr %status, align 4
  %cmp.i31 = icmp slt i32 %3, 1
  br i1 %cmp.i31, label %if.end7, label %if.then6

if.then6:                                         ; preds = %if.end
  tail call void @ures_close_75(ptr noundef %call2)
  br label %return

if.end7:                                          ; preds = %if.end
  store i32 0, ptr %tmperr, align 4
  %fUnion.i.i33 = getelementptr inbounds i8, ptr %winid, i64 8
  %4 = load i16, ptr %fUnion.i.i33, align 8
  %cmp.i.i = icmp slt i16 %4, 0
  %5 = ashr i16 %4, 5
  %shr.i.i = sext i16 %5 to i32
  %fLength.i = getelementptr inbounds i8, ptr %winid, i64 12
  %6 = load i32, ptr %fLength.i, align 4
  %cond.i = select i1 %cmp.i.i, i32 %6, i32 %shr.i.i
  %call9 = call noundef i32 @_ZNK6icu_7513UnicodeString7extractEiiPciNS0_10EInvariantE(ptr noundef nonnull align 8 dereferenceable(64) %winid, i32 noundef 0, i32 noundef %cond.i, ptr noundef nonnull %winidKey, i32 noundef 127, i32 noundef 0)
  %cmp = icmp eq i32 %call9, 0
  %cmp10 = icmp sgt i32 %call9, 127
  %or.cond = or i1 %cmp, %cmp10
  br i1 %or.cond, label %if.then11, label %if.end12

if.then11:                                        ; preds = %if.end7
  call void @ures_close_75(ptr noundef %call2)
  br label %return

if.end12:                                         ; preds = %if.end7
  %idxprom = sext i32 %call9 to i64
  %arrayidx = getelementptr inbounds [128 x i8], ptr %winidKey, i64 0, i64 %idxprom
  store i8 0, ptr %arrayidx, align 1
  %call14 = call ptr @ures_getByKey_75(ptr noundef %call2, ptr noundef nonnull %winidKey, ptr noundef %call2, ptr noundef nonnull %tmperr)
  %7 = load i32, ptr %tmperr, align 4
  %cmp.i34 = icmp slt i32 %7, 1
  br i1 %cmp.i34, label %if.end18, label %if.then17

if.then17:                                        ; preds = %if.end12
  call void @ures_close_75(ptr noundef %call2)
  br label %return

if.end18:                                         ; preds = %if.end12
  store i32 0, ptr %len, align 4
  %tobool19.not = icmp eq ptr %region, null
  br i1 %tobool19.not, label %if.then34.critedge, label %if.then20

if.then20:                                        ; preds = %if.end18
  %call21 = call ptr @ures_getStringByKey_75(ptr noundef %call2, ptr noundef nonnull %region, ptr noundef nonnull %len, ptr noundef nonnull %tmperr)
  %8 = load i32, ptr %tmperr, align 4
  %cmp.i36 = icmp sgt i32 %8, 0
  br i1 %cmp.i36, label %if.then34.critedge, label %if.then24

if.then24:                                        ; preds = %if.then20
  %call25 = call ptr @u_strchr_75(ptr noundef %call21, i16 noundef zeroext 32)
  %cmp26 = icmp eq ptr %call25, null
  br i1 %cmp26, label %if.then27, label %if.else

if.then27:                                        ; preds = %if.then24
  %call28 = call noundef nonnull align 8 dereferenceable(64) ptr @_ZN6icu_7513UnicodeString5setToEPKDsi(ptr noundef nonnull align 8 dereferenceable(64) %id, ptr noundef %call21, i32 noundef -1)
  br label %if.end41

if.else:                                          ; preds = %if.then24
  %sub.ptr.lhs.cast = ptrtoint ptr %call25 to i64
  %sub.ptr.rhs.cast = ptrtoint ptr %call21 to i64
  %sub.ptr.sub = sub i64 %sub.ptr.lhs.cast, %sub.ptr.rhs.cast
  %sub.ptr.div = lshr exact i64 %sub.ptr.sub, 1
  %conv = trunc i64 %sub.ptr.div to i32
  %call29 = call noundef nonnull align 8 dereferenceable(64) ptr @_ZN6icu_7513UnicodeString5setToEPKDsi(ptr noundef nonnull align 8 dereferenceable(64) %id, ptr noundef %call21, i32 noundef %conv)
  br label %if.end41

if.then34.critedge:                               ; preds = %if.end18, %if.then20
  %call35 = call ptr @ures_getStringByKey_75(ptr noundef %call2, ptr noundef nonnull @.str.10, ptr noundef nonnull %len, ptr noundef nonnull %status)
  %9 = load i32, ptr %status, align 4
  %cmp.i38 = icmp sgt i32 %9, 0
  br i1 %cmp.i38, label %if.end41, label %if.then38

if.then38:                                        ; preds = %if.then34.critedge
  %10 = load i32, ptr %len, align 4
  %call39 = call noundef nonnull align 8 dereferenceable(64) ptr @_ZN6icu_7513UnicodeString5setToEPKDsi(ptr noundef nonnull align 8 dereferenceable(64) %id, ptr noundef %call35, i32 noundef %10)
  br label %if.end41

if.end41:                                         ; preds = %if.else, %if.then27, %if.then34.critedge, %if.then38
  call void @ures_close_75(ptr noundef %call2)
  br label %return

return:                                           ; preds = %entry, %if.end41, %if.then17, %if.then11, %if.then6
  ret ptr %id
}